Certificate:
    Data:
        Version: 3 (0x2)
        Serial Number: 2 (0x2)
        Signature Algorithm: sha1WithRSAEncryption
        Issuer: C=CA, ST=QC, L=Montreal, O=Concordia University, OU=ENCS, CN=Bing LI/emailAddress=leebingice@gmail.com
        Validity
            Not Before: Sep 30 16:54:15 2013 GMT
            Not After : Sep 30 16:54:15 2014 GMT
        Subject: C=CA, ST=QC, O=Concordia University, OU=ENCS, CN=client/emailAddress=leebingice@gmail.com
        Subject Public Key Info:
            Public Key Algorithm: rsaEncryption
            RSA Public Key: (1024 bit)
                Modulus (1024 bit):
                    00:dd:05:e3:4d:04:d7:1e:dc:85:a0:4b:b9:2a:19:
                    12:82:8f:74:60:20:98:cc:0b:03:72:30:9e:68:22:
                    47:42:bf:34:4b:d7:e4:4c:ba:a6:e8:60:74:02:c3:
                    58:82:11:91:88:04:f2:20:84:ed:8f:7d:e5:19:e5:
                    05:10:40:49:3d:81:59:da:d5:5a:6b:ba:86:dc:8c:
                    4e:20:21:c3:44:08:e0:14:f3:4c:83:f4:ab:30:1b:
                    4b:2a:a3:45:0e:bc:b6:04:cd:71:b6:48:4f:a2:6e:
                    17:aa:23:be:fa:68:94:d6:3e:35:c8:33:86:9c:4f:
                    d1:37:51:5a:32:7b:54:ef:a7
                Exponent: 65537 (0x10001)
        X509v3 extensions:
            X509v3 Basic Constraints: 
                CA:FALSE
            Netscape Comment: 
                OpenSSL Generated Certificate
            X509v3 Subject Key Identifier: 
                D9:FD:D9:B9:65:22:5E:F6:6E:85:5C:40:5A:23:90:9F:E4:3A:7E:F8
            X509v3 Authority Key Identifier: 
                keyid:38:88:63:88:14:1A:5B:96:78:AD:34:C8:08:67:1D:4B:8E:79:6B:0B

    Signature Algorithm: sha1WithRSAEncryption
        ba:b6:9d:10:a6:5a:b9:de:02:bf:98:8a:81:ef:d5:f4:c3:04:
        42:5b:58:f8:9d:2f:42:b2:46:ac:c5:05:ef:42:5a:b2:c3:5a:
        b3:db:0a:4c:1a:f3:c3:a1:d7:86:85:a5:b6:d1:03:0c:1c:62:
        99:1a:bb:1b:03:8e:e2:55:5b:6b:57:81:1e:4d:f8:35:52:f5:
        40:3e:1f:31:ef:ef:b1:49:16:60:69:7e:1d:3c:17:63:3b:92:
        b4:7e:ae:01:70:b3:4e:66:58:a7:c6:9a:0f:04:73:6e:49:c4:
        e9:b3:ff:a3:dd:08:2a:c8:8f:b0:d3:ec:88:20:ad:47:b9:e7:
        36:86
-----BEGIN CERTIFICATE-----
MIIDAjCCAmugAwIBAgIBAjANBgkqhkiG9w0BAQUFADCBkjELMAkGA1UEBhMCQ0Ex
CzAJBgNVBAgTAlFDMREwDwYDVQQHEwhNb250cmVhbDEdMBsGA1UEChMUQ29uY29y
ZGlhIFVuaXZlcnNpdHkxDTALBgNVBAsTBEVOQ1MxEDAOBgNVBAMTB0JpbmcgTEkx
IzAhBgkqhkiG9w0BCQEWFGxlZWJpbmdpY2VAZ21haWwuY29tMB4XDTEzMDkzMDE2
NTQxNVoXDTE0MDkzMDE2NTQxNVowfjELMAkGA1UEBhMCQ0ExCzAJBgNVBAgTAlFD
MR0wGwYDVQQKExRDb25jb3JkaWEgVW5pdmVyc2l0eTENMAsGA1UECxMERU5DUzEP
MA0GA1UEAxMGY2xpZW50MSMwIQYJKoZIhvcNAQkBFhRsZWViaW5naWNlQGdtYWls
LmNvbTCBnzANBgkqhkiG9w0BAQEFAAOBjQAwgYkCgYEA3QXjTQTXHtyFoEu5KhkS
go90YCCYzAsDcjCeaCJHQr80S9fkTLqm6GB0AsNYghGRiATyIITtj33lGeUFEEBJ
PYFZ2tVaa7qG3IxOICHDRAjgFPNMg/SrMBtLKqNFDry2BM1xtkhPom4XqiO++miU
1j41yDOGnE/RN1FaMntU76cCAwEAAaN7MHkwCQYDVR0TBAIwADAsBglghkgBhvhC
AQ0EHxYdT3BlblNTTCBHZW5lcmF0ZWQgQ2VydGlmaWNhdGUwHQYDVR0OBBYEFNn9
2bllIl72boVcQFojkJ/kOn74MB8GA1UdIwQYMBaAFDiIY4gUGluWeK00yAhnHUuO
eWsLMA0GCSqGSIb3DQEBBQUAA4GBALq2nRCmWrneAr+YioHv1fTDBEJbWPidL0Ky
RqzFBe9CWrLDWrPbCkwa88Oh14aFpbbRAwwcYpkauxsDjuJVW2tXgR5N+DVS9UA+
HzHv77FJFmBpfh08F2M7krR+rgFws05mWKfGmg8Ec25JxOmz/6PdCCrIj7DT7Igg
rUe55zaG
-----END CERTIFICATE-----
