Certificate:
    Data:
        Version: 3 (0x2)
        Serial Number: 1 (0x1)
        Signature Algorithm: sha1WithRSAEncryption
        Issuer: C=CA, ST=QC, L=Montreal, O=Concordia University, OU=ENCS, CN=Bing LI/emailAddress=leebingice@gmail.com
        Validity
            Not Before: Sep 30 16:49:38 2013 GMT
            Not After : Sep 30 16:49:38 2014 GMT
        Subject: C=CA, ST=QC, O=Concordia University, OU=ENCS, CN=server/emailAddress=leebingice@gmail.com
        Subject Public Key Info:
            Public Key Algorithm: rsaEncryption
            RSA Public Key: (1024 bit)
                Modulus (1024 bit):
                    00:d6:0b:01:bd:38:f7:ec:e6:f0:40:83:51:44:13:
                    18:1d:81:8b:04:a7:0e:60:66:c3:5a:a8:09:94:6d:
                    a5:0e:6c:cb:7a:78:33:59:1b:5e:bf:b4:8b:67:2c:
                    cc:58:a7:d7:14:a5:27:44:59:35:06:ea:ed:02:48:
                    cb:58:63:46:d3:9d:74:35:b8:94:bf:79:15:af:61:
                    23:14:99:11:e3:4c:a2:20:ce:97:e7:63:d7:51:5a:
                    71:91:18:92:63:3b:c4:19:11:c6:51:79:4d:8e:63:
                    3e:40:49:e0:d2:78:a1:76:28:af:46:db:af:b9:9c:
                    80:e6:4b:a8:18:be:b9:c6:c9
                Exponent: 65537 (0x10001)
        X509v3 extensions:
            X509v3 Basic Constraints: 
                CA:FALSE
            Netscape Comment: 
                OpenSSL Generated Certificate
            X509v3 Subject Key Identifier: 
                43:0D:C5:4A:EB:1F:FF:99:B1:55:33:00:BC:C1:F9:3D:CB:AC:CB:F1
            X509v3 Authority Key Identifier: 
                keyid:38:88:63:88:14:1A:5B:96:78:AD:34:C8:08:67:1D:4B:8E:79:6B:0B

    Signature Algorithm: sha1WithRSAEncryption
        ae:43:d1:c7:7d:b6:89:df:d1:52:5c:cb:55:6f:77:a8:58:c5:
        07:db:d5:a3:09:42:9c:73:ef:b2:71:4e:81:be:9a:7d:02:84:
        46:2f:d3:16:07:c7:77:d7:9c:1f:b6:46:0e:07:41:f8:26:2b:
        21:9c:b3:e9:86:86:6f:12:bd:14:f3:62:2c:9d:c0:bb:89:bd:
        4a:71:13:7b:02:6b:b0:07:05:d0:07:ba:59:46:3f:ae:97:89:
        7c:2b:77:2e:4b:71:86:a9:00:db:4d:26:b1:25:98:da:58:12:
        af:da:0b:2d:5d:89:1f:2e:45:1a:8e:0f:1e:29:86:ec:24:5c:
        b2:d6
-----BEGIN CERTIFICATE-----
MIIDAjCCAmugAwIBAgIBATANBgkqhkiG9w0BAQUFADCBkjELMAkGA1UEBhMCQ0Ex
CzAJBgNVBAgTAlFDMREwDwYDVQQHEwhNb250cmVhbDEdMBsGA1UEChMUQ29uY29y
ZGlhIFVuaXZlcnNpdHkxDTALBgNVBAsTBEVOQ1MxEDAOBgNVBAMTB0JpbmcgTEkx
IzAhBgkqhkiG9w0BCQEWFGxlZWJpbmdpY2VAZ21haWwuY29tMB4XDTEzMDkzMDE2
NDkzOFoXDTE0MDkzMDE2NDkzOFowfjELMAkGA1UEBhMCQ0ExCzAJBgNVBAgTAlFD
MR0wGwYDVQQKExRDb25jb3JkaWEgVW5pdmVyc2l0eTENMAsGA1UECxMERU5DUzEP
MA0GA1UEAxMGc2VydmVyMSMwIQYJKoZIhvcNAQkBFhRsZWViaW5naWNlQGdtYWls
LmNvbTCBnzANBgkqhkiG9w0BAQEFAAOBjQAwgYkCgYEA1gsBvTj37ObwQINRRBMY
HYGLBKcOYGbDWqgJlG2lDmzLengzWRtev7SLZyzMWKfXFKUnRFk1BurtAkjLWGNG
0510NbiUv3kVr2EjFJkR40yiIM6X52PXUVpxkRiSYzvEGRHGUXlNjmM+QEng0nih
diivRtuvuZyA5kuoGL65xskCAwEAAaN7MHkwCQYDVR0TBAIwADAsBglghkgBhvhC
AQ0EHxYdT3BlblNTTCBHZW5lcmF0ZWQgQ2VydGlmaWNhdGUwHQYDVR0OBBYEFEMN
xUrrH/+ZsVUzALzB+T3LrMvxMB8GA1UdIwQYMBaAFDiIY4gUGluWeK00yAhnHUuO
eWsLMA0GCSqGSIb3DQEBBQUAA4GBAK5D0cd9tonf0VJcy1Vvd6hYxQfb1aMJQpxz
77JxToG+mn0ChEYv0xYHx3fXnB+2Rg4HQfgmKyGcs+mGhm8SvRTzYiydwLuJvUpx
E3sCa7AHBdAHullGP66XiXwrdy5LcYapANtNJrElmNpYEq/aCy1diR8uRRqODx4p
huwkXLLW
-----END CERTIFICATE-----
